target datalayout = "e-m:e-p270:32:32-p271:32:32-p272:64:64-i64:64-i128:128-f80:128-n8:16:32:64-S128"
target triple = "x86_64-pc-linux-gnu"

%struct._lv_global_t = type { i8, i8, %struct.lv_ll_t, ptr, ptr, %struct.lv_ll_t, i8, i32, i32, ptr, %struct.lv_ll_t, ptr, %struct.lv_ll_t, ptr, ptr, i32, ptr, i8, i32, i32, ptr, i32, %struct.lv_timer_state_t, %struct.lv_anim_state_t, %struct.lv_tick_state_t, %struct._lv_draw_buf_handlers_t, %struct._lv_draw_buf_handlers_t, %struct._lv_draw_buf_handlers_t, %struct.lv_ll_t, ptr, ptr, %struct.lv_draw_global_info_t, [4 x %struct.lv_draw_sw_mask_radius_circle_dsc_t], ptr, ptr, ptr, %struct.lv_tlsf_state_t, %struct.lv_ll_t, ptr, ptr, %struct.lv_style_t, i64, ptr, i32, ptr }
%struct.lv_timer_state_t = type { %struct.lv_ll_t, i8, i8, i8, i8, i32, i8, i32, i32, i32, i32, ptr, ptr }
%struct.lv_anim_state_t = type { i8, i8, ptr, %struct.lv_ll_t }
%struct.lv_tick_state_t = type { i32, i8, ptr, ptr }
%struct._lv_draw_buf_handlers_t = type { ptr, ptr, ptr, ptr, ptr, ptr }
%struct.lv_draw_global_info_t = type { ptr, i32, i32, i32, i32, i8 }
%struct.lv_draw_sw_mask_radius_circle_dsc_t = type { ptr, ptr, ptr, ptr, i32, i32, i32 }
%struct.lv_tlsf_state_t = type { ptr, i64, i64, %struct.lv_ll_t }
%struct.lv_ll_t = type { i32, ptr, ptr }
%struct.lv_style_t = type { ptr, i32, i8 }
%struct._lv_display_t = type { i32, i32, i32, i32, i32, i32, i32, ptr, ptr, ptr, ptr, ptr, i32, i32, i8, i32, i16, i32, [32 x %struct.lv_area_t], [32 x i8], i32, i32, %struct.lv_ll_t, %struct._lv_draw_buf_t, %struct._lv_draw_buf_t, ptr, ptr, ptr, ptr, ptr, ptr, ptr, ptr, ptr, ptr, i32, i8, ptr, ptr, %struct.lv_event_list_t, i8, ptr, ptr, i32, %struct.lv_area_t }
%struct._lv_draw_buf_t = type { %struct.lv_image_header_t, i32, ptr, ptr, ptr }
%struct.lv_image_header_t = type <{ i64, i32 }>
%struct.lv_event_list_t = type { %struct._lv_array_t, i8 }
%struct._lv_array_t = type { ptr, i32, i32, i32, i8 }
%struct.lv_area_t = type { i32, i32, i32, i32 }
%struct._lv_layer_t = type { ptr, %struct.lv_area_t, i32, %struct.lv_area_t, %struct.lv_area_t, ptr, ptr, ptr, i8, ptr }

@lv_global = external global %struct._lv_global_t, align 8

; Function Attrs: nounwind uwtable
define internal void @wait_for_flushing(ptr noundef %0) #0 {
  %2 = alloca ptr, align 8
  store ptr %0, ptr %2, align 8, !tbaa !3
  br label %3

3:                                                ; preds = %1
  br label %4

4:                                                ; preds = %3
  %5 = load ptr, ptr %2, align 8, !tbaa !3
  %6 = call i32 @lv_display_send_event(ptr noundef %5, i32 noundef 63, ptr noundef null)
  %7 = load ptr, ptr %2, align 8, !tbaa !3
  %8 = getelementptr inbounds nuw %struct._lv_display_t, ptr %7, i32 0, i32 11
  %9 = load ptr, ptr %8, align 8, !tbaa !102
  %10 = icmp ne ptr %9, null
  br i1 %10, label %11, label %24

11:                                               ; preds = %4
  %12 = load ptr, ptr %2, align 8, !tbaa !3
  %13 = getelementptr inbounds nuw %struct._lv_display_t, ptr %12, i32 0, i32 12
  %14 = load volatile i32, ptr %13, align 8, !tbaa !103
  %15 = icmp ne i32 %14, 0
  br i1 %15, label %16, label %21

16:                                               ; preds = %11
  %17 = load ptr, ptr %2, align 8, !tbaa !3
  %18 = getelementptr inbounds nuw %struct._lv_display_t, ptr %17, i32 0, i32 11
  %19 = load ptr, ptr %18, align 8, !tbaa !102
  %20 = load ptr, ptr %2, align 8, !tbaa !3
  call void %19(ptr noundef %20)
  br label %21

21:                                               ; preds = %16, %11
  %22 = load ptr, ptr %2, align 8, !tbaa !3
  %23 = getelementptr inbounds nuw %struct._lv_display_t, ptr %22, i32 0, i32 12
  store volatile i32 0, ptr %23, align 8, !tbaa !103
  br label %32

24:                                               ; preds = %4
  br label %25

25:                                               ; preds = %30, %24
  %26 = load ptr, ptr %2, align 8, !tbaa !3
  %27 = getelementptr inbounds nuw %struct._lv_display_t, ptr %26, i32 0, i32 12
  %28 = load volatile i32, ptr %27, align 8, !tbaa !103
  %29 = icmp ne i32 %28, 0
  br i1 %29, label %30, label %31

30:                                               ; preds = %25
  br label %25, !llvm.loop !104

31:                                               ; preds = %25
  br label %32

32:                                               ; preds = %31, %21
  %33 = load ptr, ptr %2, align 8, !tbaa !3
  %34 = getelementptr inbounds nuw %struct._lv_display_t, ptr %33, i32 0, i32 13
  store volatile i32 0, ptr %34, align 4, !tbaa !105
  %35 = load ptr, ptr %2, align 8, !tbaa !3
  %36 = call i32 @lv_display_send_event(ptr noundef %35, i32 noundef 64, ptr noundef null)
  br label %37

37:                                               ; preds = %32
  br label %38

38:                                               ; preds = %37
  ret void
}

; Function Attrs: nounwind uwtable
define internal void @refr_configured_layer(ptr noundef %0) #0 {
  %2 = alloca ptr, align 8
  %3 = alloca ptr, align 8
  %4 = alloca ptr, align 8
  store ptr %0, ptr %2, align 8, !tbaa !3
  %5 = load ptr, ptr getelementptr inbounds nuw (%struct._lv_global_t, ptr @lv_global, i32 0, i32 3), align 8, !tbaa !21
  %6 = call zeroext i1 @lv_display_is_double_buffered(ptr noundef %5)
  br i1 %6, label %9, label %7

7:                                                ; preds = %1
  %8 = load ptr, ptr getelementptr inbounds nuw (%struct._lv_global_t, ptr @lv_global, i32 0, i32 3), align 8, !tbaa !21
  call void @wait_for_flushing(ptr noundef %8)
  br label %9

9:                                                ; preds = %7, %1
  %10 = load ptr, ptr getelementptr inbounds nuw (%struct._lv_global_t, ptr @lv_global, i32 0, i32 3), align 8, !tbaa !21
  %11 = getelementptr inbounds nuw %struct._lv_display_t, ptr %10, i32 0, i32 17
  %12 = load i32, ptr %11, align 4, !tbaa !66
  %13 = call zeroext i1 @lv_color_format_has_alpha(i32 noundef %12)
  br i1 %13, label %14, label %20

14:                                               ; preds = %9
  %15 = load ptr, ptr %2, align 8, !tbaa !3
  %16 = getelementptr inbounds nuw %struct._lv_layer_t, ptr %15, i32 0, i32 0
  %17 = load ptr, ptr %16, align 8, !tbaa !108
  %18 = load ptr, ptr %2, align 8, !tbaa !3
  %19 = getelementptr inbounds nuw %struct._lv_layer_t, ptr %18, i32 0, i32 3
  call void @lv_draw_buf_clear(ptr noundef %17, ptr noundef %19)
  br label %20

20:                                               ; preds = %14, %9
  call void @llvm.lifetime.start.p0(i64 8, ptr %3) #6
  store ptr null, ptr %3, align 8, !tbaa !3
  call void @llvm.lifetime.start.p0(i64 8, ptr %4) #6
  store ptr null, ptr %4, align 8, !tbaa !3
  %21 = load ptr, ptr %2, align 8, !tbaa !3
  %22 = getelementptr inbounds nuw %struct._lv_layer_t, ptr %21, i32 0, i32 3
  %23 = load ptr, ptr getelementptr inbounds nuw (%struct._lv_global_t, ptr @lv_global, i32 0, i32 3), align 8, !tbaa !21
  %24 = call ptr @lv_display_get_screen_active(ptr noundef %23)
  %25 = call ptr @lv_refr_get_top_obj(ptr noundef %22, ptr noundef %24)
  store ptr %25, ptr %3, align 8, !tbaa !3
  %26 = load ptr, ptr getelementptr inbounds nuw (%struct._lv_global_t, ptr @lv_global, i32 0, i32 3), align 8, !tbaa !21
  %27 = getelementptr inbounds nuw %struct._lv_display_t, ptr %26, i32 0, i32 33
  %28 = load ptr, ptr %27, align 8, !tbaa !35
  %29 = icmp ne ptr %28, null
  br i1 %29, label %30, label %37

30:                                               ; preds = %20
  %31 = load ptr, ptr %2, align 8, !tbaa !3
  %32 = getelementptr inbounds nuw %struct._lv_layer_t, ptr %31, i32 0, i32 3
  %33 = load ptr, ptr getelementptr inbounds nuw (%struct._lv_global_t, ptr @lv_global, i32 0, i32 3), align 8, !tbaa !21
  %34 = getelementptr inbounds nuw %struct._lv_display_t, ptr %33, i32 0, i32 33
  %35 = load ptr, ptr %34, align 8, !tbaa !35
  %36 = call ptr @lv_refr_get_top_obj(ptr noundef %32, ptr noundef %35)
  store ptr %36, ptr %4, align 8, !tbaa !3
  br label %37

37:                                               ; preds = %30, %20
  %38 = load ptr, ptr %3, align 8, !tbaa !3
  %39 = icmp eq ptr %38, null
  br i1 %39, label %40, label %47

40:                                               ; preds = %37
  %41 = load ptr, ptr %4, align 8, !tbaa !3
  %42 = icmp eq ptr %41, null
  br i1 %42, label %43, label %47

43:                                               ; preds = %40
  %44 = load ptr, ptr %2, align 8, !tbaa !3
  %45 = load ptr, ptr getelementptr inbounds nuw (%struct._lv_global_t, ptr @lv_global, i32 0, i32 3), align 8, !tbaa !21
  %46 = call ptr @lv_display_get_layer_bottom(ptr noundef %45)
  call void @refr_obj_and_children(ptr noundef %44, ptr noundef %46)
  br label %47

47:                                               ; preds = %43, %40, %37
  %48 = load ptr, ptr getelementptr inbounds nuw (%struct._lv_global_t, ptr @lv_global, i32 0, i32 3), align 8, !tbaa !21
  %49 = getelementptr inbounds nuw %struct._lv_display_t, ptr %48, i32 0, i32 36
  %50 = load i8, ptr %49, align 4
  %51 = and i8 %50, 1
  %52 = icmp ne i8 %51, 0
  br i1 %52, label %53, label %78

53:                                               ; preds = %47
  %54 = load ptr, ptr %3, align 8, !tbaa !3
  %55 = icmp eq ptr %54, null
  br i1 %55, label %56, label %60

56:                                               ; preds = %53
  %57 = load ptr, ptr getelementptr inbounds nuw (%struct._lv_global_t, ptr @lv_global, i32 0, i32 3), align 8, !tbaa !21
  %58 = getelementptr inbounds nuw %struct._lv_display_t, ptr %57, i32 0, i32 31
  %59 = load ptr, ptr %58, align 8, !tbaa !34
  store ptr %59, ptr %3, align 8, !tbaa !3
  br label %60

60:                                               ; preds = %56, %53
  %61 = load ptr, ptr %2, align 8, !tbaa !3
  %62 = load ptr, ptr %3, align 8, !tbaa !3
  call void @refr_obj_and_children(ptr noundef %61, ptr noundef %62)
  %63 = load ptr, ptr getelementptr inbounds nuw (%struct._lv_global_t, ptr @lv_global, i32 0, i32 3), align 8, !tbaa !21
  %64 = getelementptr inbounds nuw %struct._lv_display_t, ptr %63, i32 0, i32 33
  %65 = load ptr, ptr %64, align 8, !tbaa !35
  %66 = icmp ne ptr %65, null
  br i1 %66, label %67, label %77

67:                                               ; preds = %60
  %68 = load ptr, ptr %4, align 8, !tbaa !3
  %69 = icmp eq ptr %68, null
  br i1 %69, label %70, label %74

70:                                               ; preds = %67
  %71 = load ptr, ptr getelementptr inbounds nuw (%struct._lv_global_t, ptr @lv_global, i32 0, i32 3), align 8, !tbaa !21
  %72 = getelementptr inbounds nuw %struct._lv_display_t, ptr %71, i32 0, i32 33
  %73 = load ptr, ptr %72, align 8, !tbaa !35
  store ptr %73, ptr %4, align 8, !tbaa !3
  br label %74

74:                                               ; preds = %70, %67
  %75 = load ptr, ptr %2, align 8, !tbaa !3
  %76 = load ptr, ptr %4, align 8, !tbaa !3
  call void @refr_obj_and_children(ptr noundef %75, ptr noundef %76)
  br label %77

77:                                               ; preds = %74, %60
  br label %103

78:                                               ; preds = %47
  %79 = load ptr, ptr getelementptr inbounds nuw (%struct._lv_global_t, ptr @lv_global, i32 0, i32 3), align 8, !tbaa !21
  %80 = getelementptr inbounds nuw %struct._lv_display_t, ptr %79, i32 0, i32 33
  %81 = load ptr, ptr %80, align 8, !tbaa !35
  %82 = icmp ne ptr %81, null
  br i1 %82, label %83, label %93

83:                                               ; preds = %78
  %84 = load ptr, ptr %4, align 8, !tbaa !3
  %85 = icmp eq ptr %84, null
  br i1 %85, label %86, label %90

86:                                               ; preds = %83
  %87 = load ptr, ptr getelementptr inbounds nuw (%struct._lv_global_t, ptr @lv_global, i32 0, i32 3), align 8, !tbaa !21
  %88 = getelementptr inbounds nuw %struct._lv_display_t, ptr %87, i32 0, i32 33
  %89 = load ptr, ptr %88, align 8, !tbaa !35
  store ptr %89, ptr %4, align 8, !tbaa !3
  br label %90

90:                                               ; preds = %86, %83
  %91 = load ptr, ptr %2, align 8, !tbaa !3
  %92 = load ptr, ptr %4, align 8, !tbaa !3
  call void @refr_obj_and_children(ptr noundef %91, ptr noundef %92)
  br label %93

93:                                               ; preds = %90, %78
  %94 = load ptr, ptr %3, align 8, !tbaa !3
  %95 = icmp eq ptr %94, null
  br i1 %95, label %96, label %100

96:                                               ; preds = %93
  %97 = load ptr, ptr getelementptr inbounds nuw (%struct._lv_global_t, ptr @lv_global, i32 0, i32 3), align 8, !tbaa !21
  %98 = getelementptr inbounds nuw %struct._lv_display_t, ptr %97, i32 0, i32 31
  %99 = load ptr, ptr %98, align 8, !tbaa !34
  store ptr %99, ptr %3, align 8, !tbaa !3
  br label %100

100:                                              ; preds = %96, %93
  %101 = load ptr, ptr %2, align 8, !tbaa !3
  %102 = load ptr, ptr %3, align 8, !tbaa !3
  call void @refr_obj_and_children(ptr noundef %101, ptr noundef %102)
  br label %103

103:                                              ; preds = %100, %77
  %104 = load ptr, ptr %2, align 8, !tbaa !3
  %105 = load ptr, ptr getelementptr inbounds nuw (%struct._lv_global_t, ptr @lv_global, i32 0, i32 3), align 8, !tbaa !21
  %106 = call ptr @lv_display_get_layer_top(ptr noundef %105)
  call void @refr_obj_and_children(ptr noundef %104, ptr noundef %106)
  %107 = load ptr, ptr %2, align 8, !tbaa !3
  %108 = load ptr, ptr getelementptr inbounds nuw (%struct._lv_global_t, ptr @lv_global, i32 0, i32 3), align 8, !tbaa !21
  %109 = call ptr @lv_display_get_layer_sys(ptr noundef %108)
  call void @refr_obj_and_children(ptr noundef %107, ptr noundef %109)
  call void @llvm.lifetime.end.p0(i64 8, ptr %4) #6
  call void @llvm.lifetime.end.p0(i64 8, ptr %3) #6
  ret void
}