; Function Attrs: nounwind uwtable
define internal fastcc void @refr_configured_layer(ptr noundef %0) unnamed_addr #1 {
  %2 = load ptr, ptr getelementptr inbounds nuw (i8, ptr @lv_global, i64 32), align 8, !tbaa !20
  %3 = tail call zeroext i1 @lv_display_is_double_buffered(ptr noundef %2) #9
  br i1 %3, label %17, label %4

4:                                                ; preds = %1
  %5 = load ptr, ptr getelementptr inbounds nuw (i8, ptr @lv_global, i64 32), align 8, !tbaa !20
  %6 = tail call i32 @lv_display_send_event(ptr noundef %5, i32 noundef 63, ptr noundef null) #9
  %7 = getelementptr inbounds nuw i8, ptr %5, i64 64
  %8 = load ptr, ptr %7, align 8, !tbaa !47
  %.not.i = icmp eq ptr %8, null
  %9 = getelementptr inbounds nuw i8, ptr %5, i64 72
  br i1 %.not.i, label %.preheader.i, label %10

10:                                               ; preds = %4
  %11 = load volatile i32, ptr %9, align 8, !tbaa !48
  %.not10.i = icmp eq i32 %11, 0
  br i1 %.not10.i, label %13, label %12

12:                                               ; preds = %10
  tail call void %8(ptr noundef nonnull %5) #9
  br label %13

13:                                               ; preds = %12, %10
  store volatile i32 0, ptr %9, align 8, !tbaa !48
  br label %wait_for_flushing.exit

.preheader.i:                                     ; preds = %4, %.preheader.i
  %14 = load volatile i32, ptr %9, align 8, !tbaa !48
  %.not9.i = icmp eq i32 %14, 0
  br i1 %.not9.i, label %wait_for_flushing.exit, label %.preheader.i, !llvm.loop !49

wait_for_flushing.exit:                           ; preds = %.preheader.i, %13
  %15 = getelementptr inbounds nuw i8, ptr %5, i64 76
  store volatile i32 0, ptr %15, align 4, !tbaa !50
  %16 = tail call i32 @lv_display_send_event(ptr noundef nonnull %5, i32 noundef 64, ptr noundef null) #9
  br label %17

17:                                               ; preds = %wait_for_flushing.exit, %1
  %18 = load ptr, ptr getelementptr inbounds nuw (i8, ptr @lv_global, i64 32), align 8, !tbaa !20
  %19 = getelementptr inbounds nuw i8, ptr %18, i64 92
  %20 = load i32, ptr %19, align 4, !tbaa !60
  %21 = tail call zeroext i1 @lv_color_format_has_alpha(i32 noundef %20) #9
  br i1 %21, label %22, label %25

22:                                               ; preds = %17
  %23 = load ptr, ptr %0, align 8, !tbaa !102
  %24 = getelementptr inbounds nuw i8, ptr %0, i64 28
  tail call void @lv_draw_buf_clear(ptr noundef %23, ptr noundef nonnull %24) #9
  br label %25

25:                                               ; preds = %22, %17
  %26 = getelementptr inbounds nuw i8, ptr %0, i64 28
  %27 = load ptr, ptr getelementptr inbounds nuw (i8, ptr @lv_global, i64 32), align 8, !tbaa !20
  %28 = tail call ptr @lv_display_get_screen_active(ptr noundef %27) #9
  %29 = tail call fastcc ptr @lv_refr_get_top_obj(ptr noundef nonnull %26, ptr noundef %28)
  %30 = load ptr, ptr getelementptr inbounds nuw (i8, ptr @lv_global, i64 32), align 8, !tbaa !20
  %31 = getelementptr inbounds nuw i8, ptr %30, i64 816
  %32 = load ptr, ptr %31, align 8, !tbaa !34
  %.not = icmp eq ptr %32, null
  br i1 %.not, label %35, label %33

33:                                               ; preds = %25
  %34 = tail call fastcc ptr @lv_refr_get_top_obj(ptr noundef nonnull %26, ptr noundef nonnull %32)
  %.pre33.pre = load ptr, ptr getelementptr inbounds nuw (i8, ptr @lv_global, i64 32), align 8, !tbaa !20
  br label %35

35:                                               ; preds = %33, %25
  %.pre33 = phi ptr [ %.pre33.pre, %33 ], [ %30, %25 ]
  %.0 = phi ptr [ %34, %33 ], [ null, %25 ]
  %36 = icmp eq ptr %29, null
  %37 = icmp eq ptr %.0, null
  %or.cond = select i1 %36, i1 %37, i1 false
  br i1 %or.cond, label %38, label %40

38:                                               ; preds = %35
  %39 = tail call ptr @lv_display_get_layer_bottom(ptr noundef %.pre33) #9
  tail call fastcc void @refr_obj_and_children(ptr noundef %0, ptr noundef %39)
  %.pre = load ptr, ptr getelementptr inbounds nuw (i8, ptr @lv_global, i64 32), align 8, !tbaa !20
  br label %40

40:                                               ; preds = %38, %35
  %41 = phi ptr [ %.pre, %38 ], [ %.pre33, %35 ]
  %42 = getelementptr inbounds nuw i8, ptr %41, i64 836
  %43 = load i8, ptr %42, align 4
  %44 = and i8 %43, 1
  %.not29 = icmp eq i8 %44, 0
  br i1 %.not29, label %54, label %45

45:                                               ; preds = %40
  br i1 %36, label %46, label %49

46:                                               ; preds = %45
  %47 = getelementptr inbounds nuw i8, ptr %41, i64 800
  %48 = load ptr, ptr %47, align 8, !tbaa !33
  br label %49

49:                                               ; preds = %46, %45
  %.022 = phi ptr [ %48, %46 ], [ %29, %45 ]
  tail call fastcc void @refr_obj_and_children(ptr noundef %0, ptr noundef %.022)
  %50 = load ptr, ptr getelementptr inbounds nuw (i8, ptr @lv_global, i64 32), align 8, !tbaa !20
  %51 = getelementptr inbounds nuw i8, ptr %50, i64 816
  %52 = load ptr, ptr %51, align 8, !tbaa !34
  %.not31 = icmp eq ptr %52, null
  br i1 %.not31, label %63, label %53

53:                                               ; preds = %49
  %spec.select = select i1 %37, ptr %52, ptr %.0
  br label %.sink.split

54:                                               ; preds = %40
  %55 = getelementptr inbounds nuw i8, ptr %41, i64 816
  %56 = load ptr, ptr %55, align 8, !tbaa !34
  %.not30 = icmp eq ptr %56, null
  br i1 %.not30, label %58, label %57

57:                                               ; preds = %54
  %spec.select32 = select i1 %37, ptr %56, ptr %.0
  tail call fastcc void @refr_obj_and_children(ptr noundef %0, ptr noundef nonnull %spec.select32)
  br label %58

58:                                               ; preds = %57, %54
  br i1 %36, label %59, label %.sink.split

59:                                               ; preds = %58
  %60 = load ptr, ptr getelementptr inbounds nuw (i8, ptr @lv_global, i64 32), align 8, !tbaa !20
  %61 = getelementptr inbounds nuw i8, ptr %60, i64 800
  %62 = load ptr, ptr %61, align 8, !tbaa !33
  br label %.sink.split

.sink.split:                                      ; preds = %58, %59, %53
  %spec.select.sink = phi ptr [ %spec.select, %53 ], [ %62, %59 ], [ %29, %58 ]
  tail call fastcc void @refr_obj_and_children(ptr noundef %0, ptr noundef %spec.select.sink)
  br label %63

63:                                               ; preds = %.sink.split, %49
  %64 = load ptr, ptr getelementptr inbounds nuw (i8, ptr @lv_global, i64 32), align 8, !tbaa !20
  %65 = tail call ptr @lv_display_get_layer_top(ptr noundef %64) #9
  tail call fastcc void @refr_obj_and_children(ptr noundef %0, ptr noundef %65)
  %66 = load ptr, ptr getelementptr inbounds nuw (i8, ptr @lv_global, i64 32), align 8, !tbaa !20
  %67 = tail call ptr @lv_display_get_layer_sys(ptr noundef %66) #9
  tail call fastcc void @refr_obj_and_children(ptr noundef %0, ptr noundef %67)
  ret void
}